	.file	"Matrix_Mult.cpp"
	.section .rdata,"dr"
_ZStL19piecewise_construct:
	.space 1
.lcomm _ZStL8__ioinit,1,1
	.def	__main;	.scl	2;	.type	32;	.endef
	.text
	.globl	main
	.def	main;	.scl	2;	.type	32;	.endef
	.seh_proc	main
main:
.LFB1409:
	pushq	%rbp
	.seh_pushreg	%rbp
	movq	%rsp, %rbp
	.seh_setframe	%rbp, 0
	subq	$176, %rsp
	.seh_stackalloc	176
	.seh_endprologue
	call	__main
	movl	$1, -48(%rbp)
	movl	$2, -44(%rbp)
	movl	$3, -40(%rbp)
	movl	$4, -36(%rbp)
	movl	$5, -32(%rbp)
	movl	$6, -28(%rbp)
	movl	$7, -24(%rbp)
	movl	$8, -20(%rbp)
	movl	$9, -16(%rbp)
	movl	$1, -96(%rbp)
	movl	$2, -92(%rbp)
	movl	$3, -88(%rbp)
	movl	$4, -84(%rbp)
	movl	$5, -80(%rbp)
	movl	$6, -76(%rbp)
	movl	$7, -72(%rbp)
	movl	$8, -68(%rbp)
	movl	$9, -64(%rbp)
	movl	$0, -4(%rbp)
.L7:
	cmpl	$2, -4(%rbp)
	jg	.L2
	movl	$0, -8(%rbp)
.L6:
	cmpl	$2, -8(%rbp)
	jg	.L3
	movl	$0, -12(%rbp)
.L5:
	cmpl	$2, -12(%rbp)
	jg	.L4
	movl	-8(%rbp), %eax
	movslq	%eax, %rcx
	movl	-4(%rbp), %eax
	movslq	%eax, %rdx
	movq	%rdx, %rax
	addq	%rax, %rax
	addq	%rdx, %rax
	addq	%rcx, %rax
	movl	-96(%rbp,%rax,4), %ecx
	movl	-12(%rbp), %eax
	movslq	%eax, %r8
	movl	-4(%rbp), %eax
	movslq	%eax, %rdx
	movq	%rdx, %rax
	addq	%rax, %rax
	addq	%rdx, %rax
	addq	%r8, %rax
	movl	-48(%rbp,%rax,4), %r8d
	movl	-8(%rbp), %eax
	movslq	%eax, %r9
	movl	-12(%rbp), %eax
	movslq	%eax, %rdx
	movq	%rdx, %rax
	addq	%rax, %rax
	addq	%rdx, %rax
	addq	%r9, %rax
	movl	-96(%rbp,%rax,4), %eax
	imull	%r8d, %eax
	addl	%eax, %ecx
	movl	-8(%rbp), %eax
	movslq	%eax, %r8
	movl	-4(%rbp), %eax
	movslq	%eax, %rdx
	movq	%rdx, %rax
	addq	%rax, %rax
	addq	%rdx, %rax
	addq	%r8, %rax
	movl	%ecx, -96(%rbp,%rax,4)
	addl	$1, -12(%rbp)
	jmp	.L5
.L4:
	addl	$1, -8(%rbp)
	jmp	.L6
.L3:
	addl	$1, -4(%rbp)
	jmp	.L7
.L2:
	movl	$0, %eax
	addq	$176, %rsp
	popq	%rbp
	ret
	.seh_endproc
	.def	__tcf_0;	.scl	3;	.type	32;	.endef
	.seh_proc	__tcf_0
__tcf_0:
.LFB1592:
	pushq	%rbp
	.seh_pushreg	%rbp
	movq	%rsp, %rbp
	.seh_setframe	%rbp, 0
	subq	$32, %rsp
	.seh_stackalloc	32
	.seh_endprologue
	leaq	_ZStL8__ioinit(%rip), %rcx
	call	_ZNSt8ios_base4InitD1Ev
	nop
	addq	$32, %rsp
	popq	%rbp
	ret
	.seh_endproc
	.def	_Z41__static_initialization_and_destruction_0ii;	.scl	3;	.type	32;	.endef
	.seh_proc	_Z41__static_initialization_and_destruction_0ii
_Z41__static_initialization_and_destruction_0ii:
.LFB1591:
	pushq	%rbp
	.seh_pushreg	%rbp
	movq	%rsp, %rbp
	.seh_setframe	%rbp, 0
	subq	$32, %rsp
	.seh_stackalloc	32
	.seh_endprologue
	movl	%ecx, 16(%rbp)
	movl	%edx, 24(%rbp)
	cmpl	$1, 16(%rbp)
	jne	.L12
	cmpl	$65535, 24(%rbp)
	jne	.L12
	leaq	_ZStL8__ioinit(%rip), %rcx
	call	_ZNSt8ios_base4InitC1Ev
	leaq	__tcf_0(%rip), %rcx
	call	atexit
.L12:
	nop
	addq	$32, %rsp
	popq	%rbp
	ret
	.seh_endproc
	.def	_GLOBAL__sub_I_main;	.scl	3;	.type	32;	.endef
	.seh_proc	_GLOBAL__sub_I_main
_GLOBAL__sub_I_main:
.LFB1593:
	pushq	%rbp
	.seh_pushreg	%rbp
	movq	%rsp, %rbp
	.seh_setframe	%rbp, 0
	subq	$32, %rsp
	.seh_stackalloc	32
	.seh_endprologue
	movl	$65535, %edx
	movl	$1, %ecx
	call	_Z41__static_initialization_and_destruction_0ii
	nop
	addq	$32, %rsp
	popq	%rbp
	ret
	.seh_endproc
	.section	.ctors,"w"
	.align 8
	.quad	_GLOBAL__sub_I_main
	.ident	"GCC: (tdm64-1) 5.1.0"
	.def	_ZNSt8ios_base4InitD1Ev;	.scl	2;	.type	32;	.endef
	.def	_ZNSt8ios_base4InitC1Ev;	.scl	2;	.type	32;	.endef
	.def	atexit;	.scl	2;	.type	32;	.endef
